target datalayout = "e-m:e-p270:32:32-p271:32:32-p272:64:64-i64:64-i128:128-f80:128-n8:16:32:64-S128"
target triple = "x86_64-pc-linux-gnu"

%struct._packet_info = type { ptr, ptr, i32, i32, %struct.nstime_t, %struct.nstime_t, %struct.nstime_t, i8, ptr, ptr, ptr, ptr, %struct._address, %struct._address, %struct._address, %struct._address, %struct._address, %struct._address, i32, ptr, i8, [3 x i8], %struct.anon, i32, i32, i32, i32, ptr, i8, ptr, ptr, i16, i16, i32, i32, i16, i32, i32, ptr, ptr, ptr, i8, i8, i16, i16, i16, i32, i16, i16, ptr, ptr, ptr, ptr, ptr, i32, i32 }
%struct.nstime_t = type { i64, i32 }
%struct._address = type { i32, i32, ptr, ptr }
%struct.anon = type { i8, [3 x i8] }

@.str.225 = private unnamed_addr constant [5 x i8] c"MRCP\00", align 1

; Function Attrs: null_pointer_is_valid sspstrong uwtable
define internal i32 @dissect_mrcpv2_tcp(ptr noundef %0, ptr noundef %1, ptr noundef %2, ptr noundef %3) #0 {
  %5 = alloca i32, align 4
  %6 = alloca ptr, align 8
  %7 = alloca ptr, align 8
  %8 = alloca ptr, align 8
  %9 = alloca ptr, align 8
  %10 = alloca i32, align 4
  %11 = alloca i32, align 4
  %12 = alloca ptr, align 8
  %13 = alloca ptr, align 8
  %14 = alloca ptr, align 8
  %15 = alloca i32, align 4
  %16 = alloca i32, align 4
  %17 = alloca i32, align 4
  %18 = alloca i32, align 4
  %19 = alloca i32, align 4
  store ptr %0, ptr %6, align 8
  store ptr %1, ptr %7, align 8
  store ptr %2, ptr %8, align 8
  store ptr %3, ptr %9, align 8
  call void @llvm.lifetime.start.p0(i64 4, ptr %10) #4
  call void @llvm.lifetime.start.p0(i64 4, ptr %11) #4
  call void @llvm.lifetime.start.p0(i64 8, ptr %12) #4
  call void @llvm.lifetime.start.p0(i64 8, ptr %13) #4
  call void @llvm.lifetime.start.p0(i64 8, ptr %14) #4
  call void @llvm.lifetime.start.p0(i64 4, ptr %15) #4
  call void @llvm.lifetime.start.p0(i64 4, ptr %16) #4
  call void @llvm.lifetime.start.p0(i64 4, ptr %17) #4
  call void @llvm.lifetime.start.p0(i64 4, ptr %18) #4
  %20 = load ptr, ptr %6, align 8
  %21 = call i32 @tvb_captured_length(ptr noundef %20)
  store i32 %21, ptr %10, align 4
  %22 = load i32, ptr %10, align 4
  %23 = icmp slt i32 %22, 10
  br i1 %23, label %24, label %25

24:                                               ; preds = %4
  store i32 0, ptr %5, align 4
  store i32 1, ptr %19, align 4
  br label %125

25:                                               ; preds = %4
  %26 = load ptr, ptr %6, align 8
  %27 = call i32 @tvb_find_uint8(ptr noundef %26, i32 noundef 0, i32 noundef 10, i8 noundef zeroext 47)
  store i32 %27, ptr %15, align 4
  %28 = load i32, ptr %15, align 4
  %29 = icmp ne i32 %28, 4
  br i1 %29, label %30, label %31

30:                                               ; preds = %25
  store i32 0, ptr %5, align 4
  store i32 1, ptr %19, align 4
  br label %125

31:                                               ; preds = %25
  %32 = load ptr, ptr %7, align 8
  %33 = getelementptr inbounds nuw %struct._packet_info, ptr %32, i32 0, i32 51
  %34 = load ptr, ptr %33, align 8
  %35 = load ptr, ptr %6, align 8
  %36 = load i32, ptr %15, align 4
  %37 = call ptr @tvb_get_string_enc(ptr noundef %34, ptr noundef %35, i32 noundef 0, i32 noundef %36, i32 noundef 0)
  store ptr %37, ptr %12, align 8
  %38 = load ptr, ptr %12, align 8
  %39 = call i32 @strcmp(ptr noundef %38, ptr noundef @.str.225) #5
  %40 = icmp ne i32 %39, 0
  br i1 %40, label %41, label %42

41:                                               ; preds = %31
  store i32 0, ptr %5, align 4
  store i32 1, ptr %19, align 4
  br label %125

42:                                               ; preds = %31
  %43 = load ptr, ptr %6, align 8
  %44 = load i32, ptr %15, align 4
  %45 = add i32 %44, 1
  %46 = load i32, ptr %15, align 4
  %47 = sub i32 10, %46
  %48 = sub i32 %47, 1
  %49 = call i32 @tvb_find_uint8(ptr noundef %43, i32 noundef %45, i32 noundef %48, i8 noundef zeroext 46)
  store i32 %49, ptr %16, align 4
  %50 = load i32, ptr %16, align 4
  %51 = icmp eq i32 %50, -1
  br i1 %51, label %52, label %53

52:                                               ; preds = %42
  store i32 0, ptr %5, align 4
  store i32 1, ptr %19, align 4
  br label %125

53:                                               ; preds = %42
  %54 = load i32, ptr %16, align 4
  %55 = load i32, ptr %15, align 4
  %56 = sub i32 %54, %55
  %57 = sub i32 %56, 1
  store i32 %57, ptr %11, align 4
  %58 = load i32, ptr %11, align 4
  %59 = icmp ne i32 %58, 1
  br i1 %59, label %60, label %64

60:                                               ; preds = %53
  %61 = load i32, ptr %11, align 4
  %62 = icmp ne i32 %61, 2
  br i1 %62, label %63, label %64

63:                                               ; preds = %60
  store i32 0, ptr %5, align 4
  store i32 1, ptr %19, align 4
  br label %125

64:                                               ; preds = %60, %53
  %65 = load ptr, ptr %7, align 8
  %66 = getelementptr inbounds nuw %struct._packet_info, ptr %65, i32 0, i32 51
  %67 = load ptr, ptr %66, align 8
  %68 = load ptr, ptr %6, align 8
  %69 = load i32, ptr %15, align 4
  %70 = add i32 %69, 1
  %71 = load i32, ptr %11, align 4
  %72 = call ptr @tvb_get_string_enc(ptr noundef %67, ptr noundef %68, i32 noundef %70, i32 noundef %71, i32 noundef 0)
  store ptr %72, ptr %13, align 8
  %73 = load ptr, ptr %13, align 8
  %74 = call zeroext i1 @ws_strtou32(ptr noundef %73, ptr noundef null, ptr noundef %18)
  br i1 %74, label %75, label %78

75:                                               ; preds = %64
  %76 = load i32, ptr %18, align 4
  %77 = icmp ne i32 %76, 2
  br i1 %77, label %78, label %79

78:                                               ; preds = %75, %64
  store i32 0, ptr %5, align 4
  store i32 1, ptr %19, align 4
  br label %125

79:                                               ; preds = %75
  %80 = load ptr, ptr %6, align 8
  %81 = load i32, ptr %16, align 4
  %82 = add i32 %81, 1
  %83 = load i32, ptr %16, align 4
  %84 = sub i32 10, %83
  %85 = sub i32 %84, 1
  %86 = call i32 @tvb_find_uint8(ptr noundef %80, i32 noundef %82, i32 noundef %85, i8 noundef zeroext 32)
  store i32 %86, ptr %17, align 4
  %87 = load i32, ptr %17, align 4
  %88 = icmp eq i32 %87, -1
  br i1 %88, label %89, label %100

89:                                               ; preds = %79
  %90 = load ptr, ptr %7, align 8
  %91 = getelementptr inbounds nuw %struct._packet_info, ptr %90, i32 0, i32 51
  %92 = load ptr, ptr %91, align 8
  %93 = load ptr, ptr %6, align 8
  %94 = load i32, ptr %16, align 4
  %95 = add i32 %94, 1
  %96 = load i32, ptr %16, align 4
  %97 = sub i32 10, %96
  %98 = sub i32 %97, 1
  %99 = call ptr @tvb_get_string_enc(ptr noundef %92, ptr noundef %93, i32 noundef %95, i32 noundef %98, i32 noundef 0)
  store ptr %99, ptr %14, align 8
  store i32 10, ptr %10, align 4
  br label %112

100:                                              ; preds = %79
  %101 = load ptr, ptr %7, align 8
  %102 = getelementptr inbounds nuw %struct._packet_info, ptr %101, i32 0, i32 51
  %103 = load ptr, ptr %102, align 8
  %104 = load ptr, ptr %6, align 8
  %105 = load i32, ptr %16, align 4
  %106 = add i32 %105, 1
  %107 = load i32, ptr %17, align 4
  %108 = sub i32 10, %107
  %109 = sub i32 %108, 1
  %110 = call ptr @tvb_get_string_enc(ptr noundef %103, ptr noundef %104, i32 noundef %106, i32 noundef %109, i32 noundef 0)
  store ptr %110, ptr %14, align 8
  %111 = load i32, ptr %17, align 4
  store i32 %111, ptr %10, align 4
  br label %112

112:                                              ; preds = %100, %89
  %113 = load ptr, ptr %14, align 8
  %114 = call zeroext i1 @ws_strtou32(ptr noundef %113, ptr noundef null, ptr noundef %18)
  br i1 %114, label %115, label %118

115:                                              ; preds = %112
  %116 = load i32, ptr %18, align 4
  %117 = icmp ne i32 %116, 0
  br i1 %117, label %118, label %119

118:                                              ; preds = %115, %112
  store i32 0, ptr %5, align 4
  store i32 1, ptr %19, align 4
  br label %125

119:                                              ; preds = %115
  %120 = load ptr, ptr %6, align 8
  %121 = load ptr, ptr %7, align 8
  %122 = load ptr, ptr %8, align 8
  %123 = load ptr, ptr %9, align 8
  call void @tcp_dissect_pdus(ptr noundef %120, ptr noundef %121, ptr noundef %122, i1 noundef zeroext true, i32 noundef 30, ptr noundef @get_mrcpv2_pdu_len, ptr noundef @dissect_mrcpv2_tcp_pdu, ptr noundef %123)
  %124 = load i32, ptr %10, align 4
  store i32 %124, ptr %5, align 4
  store i32 1, ptr %19, align 4
  br label %125

125:                                              ; preds = %119, %118, %78, %63, %52, %41, %30, %24
  call void @llvm.lifetime.end.p0(i64 4, ptr %18) #4
  call void @llvm.lifetime.end.p0(i64 4, ptr %17) #4
  call void @llvm.lifetime.end.p0(i64 4, ptr %16) #4
  call void @llvm.lifetime.end.p0(i64 4, ptr %15) #4
  call void @llvm.lifetime.end.p0(i64 8, ptr %14) #4
  call void @llvm.lifetime.end.p0(i64 8, ptr %13) #4
  call void @llvm.lifetime.end.p0(i64 8, ptr %12) #4
  call void @llvm.lifetime.end.p0(i64 4, ptr %11) #4
  call void @llvm.lifetime.end.p0(i64 4, ptr %10) #4
  %126 = load i32, ptr %5, align 4
  ret i32 %126
}