; Function Attrs: null_pointer_is_valid sspstrong uwtable
define internal range(i32 0, -1) i32 @dissect_mrcpv2_tcp(ptr noundef %0, ptr noundef %1, ptr noundef %2, ptr noundef %3) #0 {
  %5 = alloca i32, align 4
  call void @llvm.lifetime.start.p0(i64 4, ptr nonnull %5) #4
  %6 = tail call i32 @tvb_captured_length(ptr noundef %0)
  %7 = icmp slt i32 %6, 10
  br i1 %7, label %37, label %8

8:                                                ; preds = %4
  %9 = tail call i32 @tvb_find_uint8(ptr noundef %0, i32 noundef 0, i32 noundef 10, i8 noundef zeroext 47)
  %.not51 = icmp eq i32 %9, 4
  br i1 %.not51, label %10, label %37

10:                                               ; preds = %8
  %11 = getelementptr inbounds nuw i8, ptr %1, i64 408
  %12 = load ptr, ptr %11, align 8
  %13 = tail call ptr @tvb_get_string_enc(ptr noundef %12, ptr noundef %0, i32 noundef 0, i32 noundef 4, i32 noundef 0)
  %14 = tail call i32 @strcmp(ptr noundef %13, ptr noundef nonnull dereferenceable(5) @.str.225) #5
  %.not52 = icmp eq i32 %14, 0
  br i1 %.not52, label %15, label %37

15:                                               ; preds = %10
  %16 = tail call i32 @tvb_find_uint8(ptr noundef %0, i32 noundef 5, i32 noundef 5, i8 noundef zeroext 46)
  %17 = add i32 %16, -8
  %or.cond = icmp ult i32 %17, -2
  br i1 %or.cond, label %37, label %18

18:                                               ; preds = %15
  %19 = add nsw i32 %16, -5
  %20 = load ptr, ptr %11, align 8
  %21 = tail call ptr @tvb_get_string_enc(ptr noundef %20, ptr noundef %0, i32 noundef 5, i32 noundef %19, i32 noundef 0)
  %22 = call zeroext i1 @ws_strtou32(ptr noundef %21, ptr noundef null, ptr noundef nonnull %5)
  %23 = load i32, ptr %5, align 4
  %24 = icmp eq i32 %23, 2
  %or.cond3.not = select i1 %22, i1 %24, i1 false
  br i1 %or.cond3.not, label %25, label %37

25:                                               ; preds = %18
  %26 = add nuw nsw i32 %16, 1
  %27 = sub nuw nsw i32 9, %16
  %28 = call i32 @tvb_find_uint8(ptr noundef %0, i32 noundef %26, i32 noundef %27, i8 noundef zeroext 32)
  %29 = icmp eq i32 %28, -1
  %30 = load ptr, ptr %11, align 8
  %31 = sub i32 9, %28
  %.sink = select i1 %29, i32 %27, i32 %31
  %32 = call ptr @tvb_get_string_enc(ptr noundef %30, ptr noundef %0, i32 noundef %26, i32 noundef %.sink, i32 noundef 0)
  %33 = call zeroext i1 @ws_strtou32(ptr noundef %32, ptr noundef null, ptr noundef nonnull %5)
  %34 = load i32, ptr %5, align 4
  %35 = icmp eq i32 %34, 0
  %or.cond6.not = select i1 %33, i1 %35, i1 false
  br i1 %or.cond6.not, label %36, label %37

36:                                               ; preds = %25
  %.046 = select i1 %29, i32 10, i32 %28
  call void @tcp_dissect_pdus(ptr noundef %0, ptr noundef %1, ptr noundef %2, i1 noundef zeroext true, i32 noundef 30, ptr noundef nonnull @get_mrcpv2_pdu_len, ptr noundef nonnull @dissect_mrcpv2_tcp_pdu, ptr noundef %3)
  br label %37

37:                                               ; preds = %25, %18, %15, %10, %8, %4, %36
  %.0 = phi i32 [ %.046, %36 ], [ 0, %4 ], [ 0, %8 ], [ 0, %10 ], [ 0, %15 ], [ 0, %18 ], [ 0, %25 ]
  call void @llvm.lifetime.end.p0(i64 4, ptr nonnull %5) #4
  ret i32 %.0
}